target datalayout = "e-m:e-p270:32:32-p271:32:32-p272:64:64-i64:64-i128:128-f80:128-n8:16:32:64-S128"
target triple = "x86_64-pc-linux-gnu"

; Function Attrs: nounwind sspstrong uwtable
define dso_local double @grabbag__replaygain_compute_scale_factor(double noundef %0, double noundef %1, double noundef %2, i32 noundef %3) #0 {
  %5 = alloca double, align 8
  %6 = alloca double, align 8
  %7 = alloca double, align 8
  %8 = alloca i32, align 4
  %9 = alloca double, align 8
  %10 = alloca double, align 8
  store double %0, ptr %5, align 8, !tbaa !8
  store double %1, ptr %6, align 8, !tbaa !8
  store double %2, ptr %7, align 8, !tbaa !8
  store i32 %3, ptr %8, align 4, !tbaa !4
  call void @llvm.lifetime.start.p0(i64 8, ptr %9) #8
  %11 = load double, ptr %7, align 8, !tbaa !8
  %12 = load double, ptr %6, align 8, !tbaa !8
  %13 = fadd double %12, %11
  store double %13, ptr %6, align 8, !tbaa !8
  %14 = load double, ptr %6, align 8, !tbaa !8
  %15 = fmul double %14, 5.000000e-02
  %16 = call double @pow(double noundef 1.000000e+01, double noundef %15) #8, !tbaa !4
  %17 = fptrunc double %16 to float
  %18 = fpext float %17 to double
  store double %18, ptr %9, align 8, !tbaa !8
  %19 = load i32, ptr %8, align 4, !tbaa !4
  %20 = icmp ne i32 %19, 0
  br i1 %20, label %21, label %35

21:                                               ; preds = %4
  %22 = load double, ptr %5, align 8, !tbaa !8
  %23 = fcmp ogt double %22, 0.000000e+00
  br i1 %23, label %24, label %35

24:                                               ; preds = %21
  call void @llvm.lifetime.start.p0(i64 8, ptr %10) #8
  %25 = load double, ptr %5, align 8, !tbaa !8
  %26 = fdiv double 1.000000e+00, %25
  %27 = fptrunc double %26 to float
  %28 = fpext float %27 to double
  store double %28, ptr %10, align 8, !tbaa !8
  %29 = load double, ptr %9, align 8, !tbaa !8
  %30 = load double, ptr %10, align 8, !tbaa !8
  %31 = fcmp ogt double %29, %30
  br i1 %31, label %32, label %34

32:                                               ; preds = %24
  %33 = load double, ptr %10, align 8, !tbaa !8
  store double %33, ptr %9, align 8, !tbaa !8
  br label %34

34:                                               ; preds = %32, %24
  call void @llvm.lifetime.end.p0(i64 8, ptr %10) #8
  br label %35

35:                                               ; preds = %34, %21, %4
  %36 = load double, ptr %9, align 8, !tbaa !8
  call void @llvm.lifetime.end.p0(i64 8, ptr %9) #8
  ret double %36
}