; Function Attrs: mustprogress nofree nounwind sspstrong willreturn memory(write) uwtable
define dso_local double @grabbag__replaygain_compute_scale_factor(double noundef %0, double noundef %1, double noundef %2, i32 noundef %3) local_unnamed_addr #8 {
  %5 = fadd double %1, %2
  %6 = fmul double %5, 5.000000e-02
  %7 = tail call double @pow(double noundef 1.000000e+01, double noundef %6) #14, !tbaa !11
  %8 = fptrunc double %7 to float
  %9 = fpext float %8 to double
  %10 = icmp ne i32 %3, 0
  %11 = fcmp ogt double %0, 0.000000e+00
  %or.cond = and i1 %11, %10
  br i1 %or.cond, label %12, label %17

12:                                               ; preds = %4
  %13 = fdiv double 1.000000e+00, %0
  %14 = fptrunc double %13 to float
  %15 = fcmp ogt float %8, %14
  %16 = fpext float %14 to double
  %.1 = select i1 %15, double %16, double %9
  br label %17

17:                                               ; preds = %12, %4
  %.0 = phi double [ %.1, %12 ], [ %9, %4 ]
  ret double %.0
}